target datalayout = "e-m:e-p270:32:32-p271:32:32-p272:64:64-i64:64-i128:128-f80:128-n8:16:32:64-S128"
target triple = "x86_64-pc-linux-gnu"

; Function Attrs: nounwind uwtable
define internal ptr @pdf_readval(ptr noundef %0, i32 noundef %1, ptr noundef %2) #0 {
  %4 = alloca ptr, align 8
  %5 = alloca ptr, align 8
  %6 = alloca i32, align 4
  %7 = alloca ptr, align 8
  %8 = alloca ptr, align 8
  %9 = alloca ptr, align 8
  %10 = alloca i32, align 4
  store ptr %0, ptr %5, align 8
  store i32 %1, ptr %6, align 4
  store ptr %2, ptr %7, align 8
  %11 = load i32, ptr %6, align 4
  store i32 %11, ptr %10, align 4
  %12 = load ptr, ptr %5, align 8
  %13 = load ptr, ptr %7, align 8
  %14 = call ptr @pdf_getdict(ptr noundef %12, ptr noundef %6, ptr noundef %13)
  store ptr %14, ptr %5, align 8
  %15 = load ptr, ptr %5, align 8
  %16 = icmp ne ptr %15, null
  br i1 %16, label %17, label %20

17:                                               ; preds = %3
  %18 = load i32, ptr %6, align 4
  %19 = icmp sle i32 %18, 0
  br i1 %19, label %20, label %21

20:                                               ; preds = %17, %3
  store ptr null, ptr %4, align 8
  br label %146

21:                                               ; preds = %17
  br label %22

22:                                               ; preds = %37, %21
  %23 = load i32, ptr %6, align 4
  %24 = icmp sgt i32 %23, 0
  br i1 %24, label %25, label %35

25:                                               ; preds = %22
  %26 = load ptr, ptr %5, align 8
  %27 = load i8, ptr %26, align 1
  %28 = sext i8 %27 to i32
  %29 = icmp ne i32 %28, 0
  br i1 %29, label %30, label %35

30:                                               ; preds = %25
  %31 = load ptr, ptr %5, align 8
  %32 = load i8, ptr %31, align 1
  %33 = sext i8 %32 to i32
  %34 = icmp eq i32 %33, 32
  br label %35

35:                                               ; preds = %30, %25, %22
  %36 = phi i1 [ false, %25 ], [ false, %22 ], [ %34, %30 ]
  br i1 %36, label %37, label %42

37:                                               ; preds = %35
  %38 = load ptr, ptr %5, align 8
  %39 = getelementptr inbounds i8, ptr %38, i32 1
  store ptr %39, ptr %5, align 8
  %40 = load i32, ptr %6, align 4
  %41 = add nsw i32 %40, -1
  store i32 %41, ptr %6, align 4
  br label %22

42:                                               ; preds = %35
  %43 = load ptr, ptr %5, align 8
  %44 = load i8, ptr %43, align 1
  %45 = sext i8 %44 to i32
  %46 = icmp ne i32 %45, 47
  br i1 %46, label %47, label %48

47:                                               ; preds = %42
  store ptr null, ptr %4, align 8
  br label %146

48:                                               ; preds = %42
  %49 = load ptr, ptr %5, align 8
  %50 = getelementptr inbounds i8, ptr %49, i32 1
  store ptr %50, ptr %5, align 8
  %51 = load i32, ptr %6, align 4
  %52 = add nsw i32 %51, -1
  store i32 %52, ptr %6, align 4
  %53 = load ptr, ptr %5, align 8
  store ptr %53, ptr %8, align 8
  br label %54

54:                                               ; preds = %89, %48
  %55 = load i32, ptr %6, align 4
  %56 = icmp sgt i32 %55, 0
  br i1 %56, label %57, label %87

57:                                               ; preds = %54
  %58 = load ptr, ptr %8, align 8
  %59 = load i8, ptr %58, align 1
  %60 = sext i8 %59 to i32
  %61 = icmp ne i32 %60, 0
  br i1 %61, label %62, label %87

62:                                               ; preds = %57
  %63 = load ptr, ptr %8, align 8
  %64 = load i8, ptr %63, align 1
  %65 = sext i8 %64 to i32
  %66 = icmp eq i32 %65, 47
  br i1 %66, label %84, label %67

67:                                               ; preds = %62
  %68 = load i32, ptr %6, align 4
  %69 = icmp sgt i32 %68, 1
  br i1 %69, label %70, label %82

70:                                               ; preds = %67
  %71 = load ptr, ptr %8, align 8
  %72 = getelementptr inbounds i8, ptr %71, i64 0
  %73 = load i8, ptr %72, align 1
  %74 = sext i8 %73 to i32
  %75 = icmp eq i32 %74, 62
  br i1 %75, label %76, label %82

76:                                               ; preds = %70
  %77 = load ptr, ptr %8, align 8
  %78 = getelementptr inbounds i8, ptr %77, i64 1
  %79 = load i8, ptr %78, align 1
  %80 = sext i8 %79 to i32
  %81 = icmp eq i32 %80, 62
  br label %82

82:                                               ; preds = %76, %70, %67
  %83 = phi i1 [ false, %70 ], [ false, %67 ], [ %81, %76 ]
  br label %84

84:                                               ; preds = %82, %62
  %85 = phi i1 [ true, %62 ], [ %83, %82 ]
  %86 = xor i1 %85, true
  br label %87

87:                                               ; preds = %84, %57, %54
  %88 = phi i1 [ false, %57 ], [ false, %54 ], [ %86, %84 ]
  br i1 %88, label %89, label %94

89:                                               ; preds = %87
  %90 = load ptr, ptr %8, align 8
  %91 = getelementptr inbounds i8, ptr %90, i32 1
  store ptr %91, ptr %8, align 8
  %92 = load i32, ptr %6, align 4
  %93 = add nsw i32 %92, -1
  store i32 %93, ptr %6, align 4
  br label %54

94:                                               ; preds = %87
  br label %95

95:                                               ; preds = %114, %94
  %96 = load i32, ptr %6, align 4
  %97 = load i32, ptr %10, align 4
  %98 = icmp slt i32 %96, %97
  br i1 %98, label %99, label %112

99:                                               ; preds = %95
  %100 = call ptr @__ctype_b_loc() #10
  %101 = load ptr, ptr %100, align 8
  %102 = load ptr, ptr %8, align 8
  %103 = getelementptr inbounds i8, ptr %102, i64 -1
  %104 = load i8, ptr %103, align 1
  %105 = sext i8 %104 to i32
  %106 = sext i32 %105 to i64
  %107 = getelementptr inbounds i16, ptr %101, i64 %106
  %108 = load i16, ptr %107, align 2
  %109 = zext i16 %108 to i32
  %110 = and i32 %109, 8192
  %111 = icmp ne i32 %110, 0
  br label %112

112:                                              ; preds = %99, %95
  %113 = phi i1 [ false, %95 ], [ %111, %99 ]
  br i1 %113, label %114, label %119

114:                                              ; preds = %112
  %115 = load ptr, ptr %8, align 8
  %116 = getelementptr inbounds i8, ptr %115, i32 -1
  store ptr %116, ptr %8, align 8
  %117 = load i32, ptr %6, align 4
  %118 = add nsw i32 %117, 1
  store i32 %118, ptr %6, align 4
  br label %95

119:                                              ; preds = %112
  %120 = load ptr, ptr %8, align 8
  %121 = load ptr, ptr %5, align 8
  %122 = ptrtoint ptr %120 to i64
  %123 = ptrtoint ptr %121 to i64
  %124 = sub i64 %122, %123
  %125 = add nsw i64 %124, 1
  %126 = call ptr @cli_max_malloc(i64 noundef %125)
  store ptr %126, ptr %9, align 8
  %127 = load ptr, ptr %9, align 8
  %128 = icmp ne ptr %127, null
  br i1 %128, label %130, label %129

129:                                              ; preds = %119
  store ptr null, ptr %4, align 8
  br label %146

130:                                              ; preds = %119
  %131 = load ptr, ptr %9, align 8
  %132 = load ptr, ptr %5, align 8
  %133 = load ptr, ptr %8, align 8
  %134 = load ptr, ptr %5, align 8
  %135 = ptrtoint ptr %133 to i64
  %136 = ptrtoint ptr %134 to i64
  %137 = sub i64 %135, %136
  call void @llvm.memcpy.p0.p0.i64(ptr align 1 %131, ptr align 1 %132, i64 %137, i1 false)
  %138 = load ptr, ptr %9, align 8
  %139 = load ptr, ptr %8, align 8
  %140 = load ptr, ptr %5, align 8
  %141 = ptrtoint ptr %139 to i64
  %142 = ptrtoint ptr %140 to i64
  %143 = sub i64 %141, %142
  %144 = getelementptr inbounds i8, ptr %138, i64 %143
  store i8 0, ptr %144, align 1
  %145 = load ptr, ptr %9, align 8
  store ptr %145, ptr %4, align 8
  br label %146

146:                                              ; preds = %130, %129, %47, %20
  %147 = load ptr, ptr %4, align 8
  ret ptr %147
}