; Function Attrs: nounwind uwtable
define internal fastcc ptr @pdf_readval(ptr noundef %0, i32 noundef %1, ptr noundef %2) unnamed_addr #0 {
  %4 = alloca i32, align 4
  store i32 %1, ptr %4, align 4
  %5 = call fastcc ptr @pdf_getdict(ptr noundef %0, ptr noundef nonnull %4, ptr noundef %2)
  %6 = icmp eq ptr %5, null
  %7 = load i32, ptr %4, align 4
  %8 = icmp slt i32 %7, 1
  %or.cond = select i1 %6, i1 true, i1 %8
  br i1 %or.cond, label %.loopexit, label %.preheader

.preheader:                                       ; preds = %3
  %9 = zext nneg i32 %7 to i64
  %10 = getelementptr i8, ptr %5, i64 %9
  br label %11

11:                                               ; preds = %.preheader, %14
  %.03355 = phi ptr [ %5, %.preheader ], [ %15, %14 ]
  %12 = phi i32 [ %7, %.preheader ], [ %16, %14 ]
  %13 = load i8, ptr %.03355, align 1
  switch i8 %13, label %.loopexit [
    i8 32, label %14
    i8 47, label %19
  ]

14:                                               ; preds = %11
  %15 = getelementptr inbounds i8, ptr %.03355, i64 1
  %16 = add nsw i32 %12, -1
  %17 = icmp sgt i32 %12, 1
  br i1 %17, label %11, label %.critedge.thread

.critedge.thread:                                 ; preds = %14
  %.pr = load i8, ptr %10, align 1
  %.not4286 = icmp eq i8 %.pr, 47
  br i1 %.not4286, label %.thread, label %.loopexit

.thread:                                          ; preds = %.critedge.thread
  %18 = getelementptr inbounds i8, ptr %10, i64 1
  store i32 -1, ptr %4, align 4
  br label %.critedge3

19:                                               ; preds = %11
  %20 = getelementptr inbounds i8, ptr %.03355, i64 1
  %storemerge58 = add nsw i32 %12, -1
  store i32 %storemerge58, ptr %4, align 4
  %21 = icmp ugt i32 %12, 1
  br i1 %21, label %.lr.ph.preheader, label %.critedge3

.lr.ph.preheader:                                 ; preds = %19
  %22 = sext i32 %12 to i64
  %scevgep80 = getelementptr i8, ptr %.03355, i64 %22
  br label %.lr.ph

.lr.ph:                                           ; preds = %.lr.ph.preheader, %.critedge49
  %storemerge61 = phi i32 [ %storemerge, %.critedge49 ], [ %storemerge58, %.lr.ph.preheader ]
  %.03460 = phi ptr [ %30, %.critedge49 ], [ %20, %.lr.ph.preheader ]
  %storemerge.in5759 = phi i32 [ %storemerge61, %.critedge49 ], [ %12, %.lr.ph.preheader ]
  %23 = load i8, ptr %.03460, align 1
  switch i8 %23, label %24 [
    i8 0, label %.critedge3
    i8 47, label %.critedge3
  ]

24:                                               ; preds = %.lr.ph
  %.not44 = icmp ne i32 %storemerge.in5759, 2
  %25 = icmp eq i8 %23, 62
  %or.cond47 = and i1 %.not44, %25
  br i1 %or.cond47, label %26, label %.critedge49

26:                                               ; preds = %24
  %27 = getelementptr inbounds i8, ptr %.03460, i64 1
  %28 = load i8, ptr %27, align 1
  %29 = icmp eq i8 %28, 62
  br i1 %29, label %.critedge3, label %.critedge49

.critedge49:                                      ; preds = %24, %26
  %30 = getelementptr inbounds i8, ptr %.03460, i64 1
  %storemerge = add nsw i32 %storemerge61, -1
  store i32 %storemerge, ptr %4, align 4
  %31 = icmp ugt i32 %storemerge61, 1
  br i1 %31, label %.lr.ph, label %.critedge3

.critedge3:                                       ; preds = %26, %.critedge49, %.lr.ph, %.lr.ph, %.thread, %19
  %32 = phi ptr [ %20, %19 ], [ %18, %.thread ], [ %20, %.lr.ph ], [ %20, %.lr.ph ], [ %20, %.critedge49 ], [ %20, %26 ]
  %.promoted68 = phi i32 [ 0, %19 ], [ -1, %.thread ], [ %storemerge61, %26 ], [ %storemerge, %.critedge49 ], [ %storemerge61, %.lr.ph ], [ %storemerge61, %.lr.ph ]
  %.034.lcssa = phi ptr [ %20, %19 ], [ %18, %.thread ], [ %.03460, %26 ], [ %scevgep80, %.critedge49 ], [ %.03460, %.lr.ph ], [ %.03460, %.lr.ph ]
  %33 = icmp slt i32 %.promoted68, %1
  br i1 %33, label %.lr.ph70, label %.critedge5

.lr.ph70:                                         ; preds = %.critedge3
  %34 = tail call ptr @__ctype_b_loc() #24
  %35 = load ptr, ptr %34, align 8
  br label %36

36:                                               ; preds = %.lr.ph70, %44
  %.169 = phi ptr [ %.034.lcssa, %.lr.ph70 ], [ %38, %44 ]
  %37 = phi i32 [ %.promoted68, %.lr.ph70 ], [ %45, %44 ]
  %38 = getelementptr inbounds i8, ptr %.169, i64 -1
  %39 = load i8, ptr %38, align 1
  %40 = sext i8 %39 to i64
  %41 = getelementptr inbounds i16, ptr %35, i64 %40
  %42 = load i16, ptr %41, align 2
  %43 = and i16 %42, 8192
  %.not45 = icmp eq i16 %43, 0
  br i1 %.not45, label %.critedge5, label %44

44:                                               ; preds = %36
  %45 = add i32 %37, 1
  store i32 %45, ptr %4, align 4
  %exitcond.not = icmp eq i32 %45, %1
  br i1 %exitcond.not, label %.critedge5, label %36

.critedge5:                                       ; preds = %36, %44, %.critedge3
  %.1.lcssa = phi ptr [ %.034.lcssa, %.critedge3 ], [ %38, %44 ], [ %.169, %36 ]
  %46 = ptrtoint ptr %.1.lcssa to i64
  %47 = ptrtoint ptr %32 to i64
  %48 = sub i64 %46, %47
  %49 = add nsw i64 %48, 1
  %50 = tail call ptr @cli_max_malloc(i64 noundef %49) #22
  %.not46 = icmp eq ptr %50, null
  br i1 %.not46, label %.loopexit, label %51

51:                                               ; preds = %.critedge5
  tail call void @llvm.memcpy.p0.p0.i64(ptr nonnull align 1 %50, ptr nonnull align 1 %32, i64 %48, i1 false)
  %52 = getelementptr inbounds i8, ptr %50, i64 %48
  store i8 0, ptr %52, align 1
  br label %.loopexit

.loopexit:                                        ; preds = %11, %.critedge.thread, %.critedge5, %3, %51
  %.0 = phi ptr [ %50, %51 ], [ null, %3 ], [ null, %.critedge5 ], [ null, %.critedge.thread ], [ null, %11 ]
  ret ptr %.0
}